Certificate:
    Data:
        Version: 3 (0x2)
        Serial Number:
            6e:91:03:54:34:82:60:2e:dc:ea:1e:29:a4:31:63:b7:9a:d0:de:c0
        Signature Algorithm: sha256WithRSAEncryption
        Issuer: CN=localhost
        Validity
            Not Before: Sep  5 04:40:04 2025 GMT
            Not After : Oct  5 04:40:04 2025 GMT
        Subject: CN=localhost
        Subject Public Key Info:
            Public Key Algorithm: rsaEncryption
                Public-Key: (2048 bit)
                Modulus:
                    00:b9:03:04:11:4c:58:a4:52:52:59:b3:a1:6c:44:
                    07:4f:63:73:64:99:91:ba:b7:18:76:e3:a2:cf:76:
                    b6:7b:71:0d:fb:9d:2d:8c:4d:fc:b2:06:d9:33:f7:
                    f5:1a:53:2c:e2:02:36:40:b3:82:67:65:4f:4e:0a:
                    a5:dd:e6:c0:b6:00:33:1f:cc:c8:a6:6b:d1:49:87:
                    23:16:d8:7d:d6:ff:e3:38:21:ee:a2:ee:49:cd:3b:
                    81:9d:04:38:0b:20:6b:d4:98:9d:7d:28:40:8d:d4:
                    0f:41:33:97:e2:e4:ec:8c:f3:5a:1e:61:cb:9e:9a:
                    37:bb:48:15:75:6b:f5:66:42:e0:91:f4:06:8a:fd:
                    fa:31:f7:34:eb:31:b2:a9:36:36:95:11:75:7e:ef:
                    33:90:a0:3e:fc:21:61:85:a5:8b:77:fc:cf:6f:10:
                    3d:7d:3d:9f:e1:d5:58:2c:e4:fc:03:c6:a0:86:17:
                    be:e5:d0:66:b8:8b:86:b7:69:bd:f4:99:9e:b0:8a:
                    28:8f:2a:3e:66:1a:24:44:0d:4a:2b:fa:fd:49:3e:
                    df:a0:f7:d9:0b:5c:a5:b6:83:b8:ab:ce:f2:c3:56:
                    17:43:f8:0e:62:73:fb:88:1f:cf:7c:45:7d:55:4d:
                    18:99:aa:9c:fa:a9:ac:28:85:42:23:f1:f7:ed:fd:
                    4b:cd
                Exponent: 65537 (0x10001)
        X509v3 extensions:
            X509v3 Subject Key Identifier: 
                C0:F7:3C:F8:1E:C6:FE:6D:53:EE:71:B7:B0:D9:7B:74:83:E1:06:F2
            X509v3 Authority Key Identifier: 
                C0:F7:3C:F8:1E:C6:FE:6D:53:EE:71:B7:B0:D9:7B:74:83:E1:06:F2
            X509v3 Basic Constraints: critical
                CA:TRUE
    Signature Algorithm: sha256WithRSAEncryption
    Signature Value:
        59:8e:54:35:df:b8:f5:38:6f:2c:a5:f1:38:1c:6e:fc:80:e3:
        ea:db:c0:2b:c1:53:97:5a:cc:1a:de:8d:99:2a:d8:f3:42:6c:
        28:e8:f7:7e:83:94:d9:0a:49:b4:18:da:e4:d9:0c:3f:94:3d:
        3a:10:54:8f:b9:b1:1a:5e:a4:f2:42:c2:3c:45:41:7d:73:23:
        a6:30:77:e3:2c:1e:83:82:09:dd:a4:09:69:a4:d0:bc:12:47:
        7a:45:f3:53:ef:b9:08:c0:04:13:b2:85:47:b4:6d:b5:b5:4d:
        1d:46:b4:ce:05:5b:69:3a:4b:9e:86:95:c6:fe:d8:e2:74:dd:
        95:de:2a:cd:97:5f:39:e8:75:65:ff:ff:1a:51:76:5f:04:04:
        e3:73:53:d8:d6:36:78:b4:a2:58:44:28:d8:63:42:3d:9a:ea:
        a3:23:15:43:ef:a6:27:0f:1a:dc:d7:49:be:84:a2:5b:24:c7:
        d2:ba:6a:ea:ca:98:27:c5:e5:a3:96:02:cc:de:5d:aa:51:5e:
        19:2b:28:88:bb:77:07:50:f7:75:f3:26:af:a1:f3:54:ac:b2:
        6b:1e:3b:5d:36:09:6d:0c:42:1d:3b:5f:7f:a2:44:3e:db:28:
        21:85:f0:d0:aa:ec:45:9e:f6:75:68:af:8e:3a:85:95:88:4a:
        be:68:eb:21
-----BEGIN CERTIFICATE-----
MIIDCTCCAfGgAwIBAgIUbpEDVDSCYC7c6h4ppDFjt5rQ3sAwDQYJKoZIhvcNAQEL
BQAwFDESMBAGA1UEAwwJbG9jYWxob3N0MB4XDTI1MDkwNTA0NDAwNFoXDTI1MTAw
NTA0NDAwNFowFDESMBAGA1UEAwwJbG9jYWxob3N0MIIBIjANBgkqhkiG9w0BAQEF
AAOCAQ8AMIIBCgKCAQEAuQMEEUxYpFJSWbOhbEQHT2NzZJmRurcYduOiz3a2e3EN
+50tjE38sgbZM/f1GlMs4gI2QLOCZ2VPTgql3ebAtgAzH8zIpmvRSYcjFth91v/j
OCHuou5JzTuBnQQ4CyBr1JidfShAjdQPQTOX4uTsjPNaHmHLnpo3u0gVdWv1ZkLg
kfQGiv36Mfc06zGyqTY2lRF1fu8zkKA+/CFhhaWLd/zPbxA9fT2f4dVYLOT8A8ag
hhe+5dBmuIuGt2m99JmesIoojyo+ZhokRA1KK/r9ST7foPfZC1yltoO4q87yw1YX
Q/gOYnP7iB/PfEV9VU0Ymaqc+qmsKIVCI/H37f1LzQIDAQABo1MwUTAdBgNVHQ4E
FgQUwPc8+B7G/m1T7nG3sNl7dIPhBvIwHwYDVR0jBBgwFoAUwPc8+B7G/m1T7nG3
sNl7dIPhBvIwDwYDVR0TAQH/BAUwAwEB/zANBgkqhkiG9w0BAQsFAAOCAQEAWY5U
Nd+49ThvLKXxOBxu/IDj6tvAK8FTl1rMGt6NmSrY80JsKOj3foOU2QpJtBja5NkM
P5Q9OhBUj7mxGl6k8kLCPEVBfXMjpjB34yweg4IJ3aQJaaTQvBJHekXzU++5CMAE
E7KFR7RttbVNHUa0zgVbaTpLnoaVxv7Y4nTdld4qzZdfOeh1Zf//GlF2XwQE43NT
2NY2eLSiWEQo2GNCPZrqoyMVQ++mJw8a3NdJvoSiWyTH0rpq6sqYJ8Xlo5YCzN5d
qlFeGSsoiLt3B1D3dfMmr6HzVKyyax47XTYJbQxCHTtff6JEPtsoIYXw0KrsRZ72
dWivjjqFlYhKvmjrIQ==
-----END CERTIFICATE-----
